target datalayout = "e-m:e-p270:32:32-p271:32:32-p272:64:64-i64:64-i128:128-f80:128-n8:16:32:64-S128"
target triple = "x86_64-pc-linux-gnu"

%struct._zend_executor_globals = type { %struct._zval_struct, %struct._zval_struct, [32 x ptr], ptr, ptr, %struct._zend_array, %struct._zend_array, ptr, i32, i32, ptr, ptr, ptr, ptr, ptr, ptr, i64, ptr, ptr, i32, i32, i64, i32, i32, i32, i8, i8, %struct.zend_atomic_bool_s, %struct.zend_atomic_bool_s, ptr, i64, ptr, ptr, %struct._zend_array, %struct._zend_array, i32, i8, %struct._zval_struct, %struct._zval_struct, %struct._zend_stack, %struct._zend_stack, %struct._zend_stack, ptr, i32, i32, i64, ptr, ptr, ptr, %struct._zend_objects_store, ptr, ptr, ptr, [3 x %struct._zend_op], ptr, i8, i8, i64, i32, i32, ptr, [16 x %struct._HashTableIterator], ptr, %union._zend_function, %struct._zend_op, %struct._zend_array, i64, %struct.zend_get_gc_buffer, ptr, ptr, ptr, i64, i8, i32, ptr, ptr, i64, %struct._zend_call_stack, i64, i64, [6 x ptr] }
%struct.zend_atomic_bool_s = type { i8 }
%struct._zval_struct = type { %union._zend_value, %union.anon, %union.anon.2 }
%union._zend_value = type { i64 }
%union.anon = type { i32 }
%union.anon.2 = type { i32 }
%struct._zend_stack = type { i32, i32, i32, ptr }
%struct._zend_objects_store = type { ptr, i32, i32, i32 }
%struct._HashTableIterator = type { ptr, i32, i32 }
%union._zend_function = type { %struct._zend_op_array }
%struct._zend_op_array = type { i8, [3 x i8], i32, ptr, ptr, ptr, i32, i32, ptr, ptr, ptr, ptr, i32, i32, i32, i32, ptr, ptr, ptr, ptr, ptr, i32, i32, ptr, ptr, ptr, i32, i32, i32, i32, ptr, ptr, [6 x ptr] }
%struct._zend_op = type { ptr, %union._znode_op, %union._znode_op, %union._znode_op, i32, i32, i8, i8, i8, i8 }
%union._znode_op = type { i32 }
%struct._zend_array = type { %struct._zend_refcounted_h, %union.anon.4, i32, %union.anon.6, i32, i32, i32, i32, i64, ptr }
%struct._zend_refcounted_h = type { i32, %union.anon.3 }
%union.anon.3 = type { i32 }
%union.anon.4 = type { i32 }
%union.anon.6 = type { ptr }
%struct.zend_get_gc_buffer = type { ptr, ptr, ptr }
%struct._zend_call_stack = type { ptr, i64 }
%struct._zend_execute_data = type { ptr, ptr, ptr, ptr, %struct._zval_struct, ptr, ptr, ptr, ptr }
%struct.php_sxe_object = type { ptr, ptr, ptr, ptr, %struct.anon.8, %struct._zval_struct, ptr, %struct._zend_object }
%struct.anon.8 = type { ptr, ptr, i32, i32, %struct._zval_struct }
%struct._zend_object = type { %struct._zend_refcounted_h, i32, ptr, ptr, ptr, [1 x %struct._zval_struct] }
%struct._zend_class_entry = type { i8, ptr, %union.anon.9, i32, i32, i32, i32, ptr, ptr, ptr, %struct._zend_array, %struct._zend_array, %struct._zend_array, ptr, ptr, ptr, ptr, ptr, ptr, ptr, ptr, ptr, ptr, ptr, ptr, ptr, ptr, ptr, ptr, ptr, ptr, ptr, %union.anon.10, ptr, ptr, ptr, ptr, i32, i32, %union.anon.11, ptr, ptr, ptr, ptr, i32, ptr, ptr, %union.anon.12 }
%union.anon.9 = type { ptr }
%union.anon.10 = type { ptr }
%union.anon.11 = type { ptr }
%union.anon.12 = type { %struct.anon.13 }
%struct.anon.13 = type { ptr, i32, i32 }
%struct.anon.7 = type { i8, [3 x i8], i32, ptr, ptr, ptr, i32, i32, ptr, ptr, ptr, ptr, i32 }

@ce_SimpleXMLElement = dso_local global ptr null, align 8
@executor_globals = external global %struct._zend_executor_globals, align 8
@.str.16 = private unnamed_addr constant [8 x i8] c"p|C!lsb\00", align 1
@.str.17 = private unnamed_addr constant [13 x i8] c"is too large\00", align 1
@zend_known_strings = external global ptr, align 8

; Function Attrs: nounwind uwtable
define internal ptr @php_sxe_object_new(ptr noundef %0, ptr noundef %1) #0 {
  %3 = alloca ptr, align 8
  %4 = alloca i64, align 8
  %5 = alloca ptr, align 8
  %6 = alloca ptr, align 8
  %7 = alloca ptr, align 8
  %8 = alloca ptr, align 8
  %9 = alloca ptr, align 8
  store ptr %0, ptr %7, align 8
  store ptr %1, ptr %8, align 8
  %10 = load ptr, ptr %7, align 8
  store i64 152, ptr %4, align 8
  store ptr %10, ptr %5, align 8
  %11 = load i64, ptr %4, align 8
  %12 = load ptr, ptr %5, align 8
  store ptr %12, ptr %3, align 8
  %13 = load ptr, ptr %3, align 8
  %14 = getelementptr inbounds %struct._zend_class_entry, ptr %13, i32 0, i32 5
  %15 = load i32, ptr %14, align 8
  %16 = load ptr, ptr %3, align 8
  %17 = getelementptr inbounds %struct._zend_class_entry, ptr %16, i32 0, i32 4
  %18 = load i32, ptr %17, align 4
  %19 = and i32 %18, 2048
  %20 = icmp ne i32 %19, 0
  %21 = select i1 %20, i32 0, i32 1
  %22 = sub nsw i32 %15, %21
  %23 = sext i32 %22 to i64
  %24 = mul i64 16, %23
  %25 = add i64 %11, %24
  %26 = call noalias ptr @_emalloc(i64 noundef %25) #10
  store ptr %26, ptr %6, align 8
  %27 = load ptr, ptr %6, align 8
  %28 = load i64, ptr %4, align 8
  %29 = sub i64 %28, 56
  call void @llvm.memset.p0.i64(ptr align 1 %27, i8 0, i64 %29, i1 false)
  %30 = load ptr, ptr %6, align 8
  store ptr %30, ptr %9, align 8
  %31 = load ptr, ptr %9, align 8
  %32 = getelementptr inbounds %struct.php_sxe_object, ptr %31, i32 0, i32 4
  %33 = getelementptr inbounds %struct.anon.8, ptr %32, i32 0, i32 3
  store i32 0, ptr %33, align 4
  %34 = load ptr, ptr %9, align 8
  %35 = getelementptr inbounds %struct.php_sxe_object, ptr %34, i32 0, i32 4
  %36 = getelementptr inbounds %struct.anon.8, ptr %35, i32 0, i32 1
  store ptr null, ptr %36, align 8
  %37 = load ptr, ptr %9, align 8
  %38 = getelementptr inbounds %struct.php_sxe_object, ptr %37, i32 0, i32 4
  %39 = getelementptr inbounds %struct.anon.8, ptr %38, i32 0, i32 0
  store ptr null, ptr %39, align 8
  %40 = load ptr, ptr %8, align 8
  %41 = load ptr, ptr %9, align 8
  %42 = getelementptr inbounds %struct.php_sxe_object, ptr %41, i32 0, i32 6
  store ptr %40, ptr %42, align 8
  %43 = load ptr, ptr %9, align 8
  %44 = getelementptr inbounds %struct.php_sxe_object, ptr %43, i32 0, i32 7
  %45 = load ptr, ptr %7, align 8
  call void @zend_object_std_init(ptr noundef %44, ptr noundef %45)
  %46 = load ptr, ptr %9, align 8
  %47 = getelementptr inbounds %struct.php_sxe_object, ptr %46, i32 0, i32 7
  %48 = load ptr, ptr %7, align 8
  call void @object_properties_init(ptr noundef %47, ptr noundef %48)
  %49 = load ptr, ptr %9, align 8
  ret ptr %49
}

; Function Attrs: nounwind uwtable
define internal ptr @php_sxe_find_fptr_count(ptr noundef %0) #0 {
  %2 = alloca ptr, align 8
  %3 = alloca ptr, align 8
  %4 = alloca ptr, align 8
  %5 = alloca ptr, align 8
  %6 = alloca ptr, align 8
  %7 = alloca ptr, align 8
  %8 = alloca ptr, align 8
  %9 = alloca i32, align 4
  store ptr %0, ptr %6, align 8
  store ptr null, ptr %7, align 8
  %10 = load ptr, ptr %6, align 8
  store ptr %10, ptr %8, align 8
  store i32 0, ptr %9, align 4
  br label %11

11:                                               ; preds = %19, %1
  %12 = load ptr, ptr %8, align 8
  %13 = icmp ne ptr %12, null
  br i1 %13, label %14, label %23

14:                                               ; preds = %11
  %15 = load ptr, ptr %8, align 8
  %16 = load ptr, ptr @ce_SimpleXMLElement, align 8
  %17 = icmp eq ptr %15, %16
  br i1 %17, label %18, label %19

18:                                               ; preds = %14
  br label %23

19:                                               ; preds = %14
  %20 = load ptr, ptr %8, align 8
  %21 = getelementptr inbounds %struct._zend_class_entry, ptr %20, i32 0, i32 2
  %22 = load ptr, ptr %21, align 8
  store ptr %22, ptr %8, align 8
  store i32 1, ptr %9, align 4
  br label %11

23:                                               ; preds = %18, %11
  %24 = load i32, ptr %9, align 4
  %25 = icmp ne i32 %24, 0
  br i1 %25, label %26, label %53

26:                                               ; preds = %23
  %27 = load ptr, ptr %6, align 8
  %28 = getelementptr inbounds %struct._zend_class_entry, ptr %27, i32 0, i32 10
  %29 = load ptr, ptr @zend_known_strings, align 8
  %30 = getelementptr inbounds ptr, ptr %29, i64 69
  %31 = load ptr, ptr %30, align 8
  store ptr %28, ptr %3, align 8
  store ptr %31, ptr %4, align 8
  %32 = load ptr, ptr %3, align 8
  %33 = load ptr, ptr %4, align 8
  %34 = call ptr @zend_hash_find(ptr noundef %32, ptr noundef %33) #9
  store ptr %34, ptr %5, align 8
  %35 = load ptr, ptr %5, align 8
  %36 = icmp ne ptr %35, null
  br i1 %36, label %37, label %43

37:                                               ; preds = %26
  %38 = load ptr, ptr %5, align 8
  %39 = load ptr, ptr %38, align 8
  %40 = icmp ne ptr %39, null
  call void @llvm.assume(i1 %40)
  %41 = load ptr, ptr %5, align 8
  %42 = load ptr, ptr %41, align 8
  store ptr %42, ptr %2, align 8
  br label %44

43:                                               ; preds = %26
  store ptr null, ptr %2, align 8
  br label %44

44:                                               ; preds = %43, %37
  %45 = load ptr, ptr %2, align 8
  store ptr %45, ptr %7, align 8
  %46 = load ptr, ptr %7, align 8
  %47 = getelementptr inbounds %struct.anon.7, ptr %46, i32 0, i32 4
  %48 = load ptr, ptr %47, align 8
  %49 = load ptr, ptr %8, align 8
  %50 = icmp eq ptr %48, %49
  br i1 %50, label %51, label %52

51:                                               ; preds = %44
  store ptr null, ptr %7, align 8
  br label %52

52:                                               ; preds = %51, %44
  br label %53

53:                                               ; preds = %52, %23
  %54 = load ptr, ptr %7, align 8
  ret ptr %54
}

; Function Attrs: nounwind uwtable
define hidden void @zif_simplexml_load_file(ptr noundef %0, ptr noundef %1) #0 {
  %3 = alloca ptr, align 8
  %4 = alloca ptr, align 8
  %5 = alloca ptr, align 8
  %6 = alloca ptr, align 8
  %7 = alloca i64, align 8
  %8 = alloca ptr, align 8
  %9 = alloca ptr, align 8
  %10 = alloca i64, align 8
  %11 = alloca i64, align 8
  %12 = alloca ptr, align 8
  %13 = alloca ptr, align 8
  %14 = alloca i8, align 1
  %15 = alloca i32, align 4
  %16 = alloca i32, align 4
  %17 = alloca i32, align 4
  %18 = alloca i32, align 4
  %19 = alloca i32, align 4
  %20 = alloca i32, align 4
  %21 = alloca ptr, align 8
  store ptr %0, ptr %3, align 8
  store ptr %1, ptr %4, align 8
  store ptr null, ptr %9, align 8
  store i64 0, ptr %10, align 8
  store i64 0, ptr %11, align 8
  %22 = load ptr, ptr @ce_SimpleXMLElement, align 8
  store ptr %22, ptr %12, align 8
  store i8 0, ptr %14, align 1
  %23 = load ptr, ptr %3, align 8
  %24 = getelementptr inbounds %struct._zend_execute_data, ptr %23, i32 0, i32 4
  %25 = getelementptr inbounds %struct._zval_struct, ptr %24, i32 0, i32 2
  %26 = load i32, ptr %25, align 4
  %27 = call i32 (i32, ptr, ...) @zend_parse_parameters(i32 noundef %26, ptr noundef @.str.16, ptr noundef %6, ptr noundef %7, ptr noundef %12, ptr noundef %11, ptr noundef %9, ptr noundef %10, ptr noundef %14)
  %28 = icmp eq i32 %27, -1
  br i1 %28, label %29, label %34

29:                                               ; preds = %2
  br label %30

30:                                               ; preds = %29
  %31 = load ptr, ptr getelementptr inbounds (%struct._zend_executor_globals, ptr @executor_globals, i32 0, i32 50), align 8
  %32 = icmp ne ptr %31, null
  call void @llvm.assume(i1 %32)
  br label %144

33:                                               ; No predecessors!
  br label %34

34:                                               ; preds = %33, %2
  %35 = load i64, ptr %11, align 8
  %36 = icmp sgt i64 %35, 2147483647
  %37 = xor i1 %36, true
  %38 = xor i1 %37, true
  %39 = zext i1 %38 to i32
  %40 = sext i32 %39 to i64
  %41 = icmp ne i64 %40, 0
  br i1 %41, label %50, label %42

42:                                               ; preds = %34
  %43 = load i64, ptr %11, align 8
  %44 = icmp slt i64 %43, -2147483648
  %45 = xor i1 %44, true
  %46 = xor i1 %45, true
  %47 = zext i1 %46 to i32
  %48 = sext i32 %47 to i64
  %49 = icmp ne i64 %48, 0
  br label %50

50:                                               ; preds = %42, %34
  %51 = phi i1 [ true, %34 ], [ %49, %42 ]
  %52 = xor i1 %51, true
  %53 = xor i1 %52, true
  %54 = zext i1 %53 to i32
  %55 = sext i32 %54 to i64
  %56 = icmp ne i64 %55, 0
  br i1 %56, label %57, label %62

57:                                               ; preds = %50
  call void (i32, ptr, ...) @zend_argument_value_error(i32 noundef 3, ptr noundef @.str.17)
  br label %58

58:                                               ; preds = %57
  %59 = load ptr, ptr getelementptr inbounds (%struct._zend_executor_globals, ptr @executor_globals, i32 0, i32 50), align 8
  %60 = icmp ne ptr %59, null
  call void @llvm.assume(i1 %60)
  br label %144

61:                                               ; No predecessors!
  br label %62

62:                                               ; preds = %61, %50
  %63 = call ptr @__xmlLoadExtDtdDefaultValue()
  %64 = load i32, ptr %63, align 4
  store i32 %64, ptr %15, align 4
  %65 = call ptr @__xmlLoadExtDtdDefaultValue()
  store i32 0, ptr %65, align 4
  %66 = call ptr @__xmlDoValidityCheckingDefaultValue()
  %67 = load i32, ptr %66, align 4
  store i32 %67, ptr %16, align 4
  %68 = call ptr @__xmlDoValidityCheckingDefaultValue()
  store i32 0, ptr %68, align 4
  %69 = call i32 @xmlPedanticParserDefault(i32 noundef 0)
  store i32 %69, ptr %17, align 4
  %70 = call i32 @xmlSubstituteEntitiesDefault(i32 noundef 0)
  store i32 %70, ptr %18, align 4
  %71 = call i32 @xmlLineNumbersDefault(i32 noundef 0)
  store i32 %71, ptr %19, align 4
  %72 = call i32 @xmlKeepBlanksDefault(i32 noundef 1)
  store i32 %72, ptr %20, align 4
  %73 = load ptr, ptr %6, align 8
  %74 = load i64, ptr %11, align 8
  %75 = trunc i64 %74 to i32
  %76 = call ptr @xmlReadFile(ptr noundef %73, ptr noundef null, i32 noundef %75)
  store ptr %76, ptr %8, align 8
  %77 = load i32, ptr %15, align 4
  %78 = call ptr @__xmlLoadExtDtdDefaultValue()
  store i32 %77, ptr %78, align 4
  %79 = load i32, ptr %16, align 4
  %80 = call ptr @__xmlDoValidityCheckingDefaultValue()
  store i32 %79, ptr %80, align 4
  %81 = load i32, ptr %17, align 4
  %82 = call i32 @xmlPedanticParserDefault(i32 noundef %81)
  %83 = load i32, ptr %18, align 4
  %84 = call i32 @xmlSubstituteEntitiesDefault(i32 noundef %83)
  %85 = load i32, ptr %19, align 4
  %86 = call i32 @xmlLineNumbersDefault(i32 noundef %85)
  %87 = load i32, ptr %20, align 4
  %88 = call i32 @xmlKeepBlanksDefault(i32 noundef %87)
  %89 = load ptr, ptr %8, align 8
  %90 = icmp ne ptr %89, null
  br i1 %90, label %98, label %91

91:                                               ; preds = %62
  br label %92

92:                                               ; preds = %91
  br label %93

93:                                               ; preds = %92
  %94 = load ptr, ptr %4, align 8
  %95 = getelementptr inbounds %struct._zval_struct, ptr %94, i32 0, i32 1
  store i32 2, ptr %95, align 8
  br label %96

96:                                               ; preds = %93
  br label %144

97:                                               ; No predecessors!
  br label %98

98:                                               ; preds = %97, %62
  %99 = load ptr, ptr %12, align 8
  %100 = icmp ne ptr %99, null
  br i1 %100, label %103, label %101

101:                                              ; preds = %98
  %102 = load ptr, ptr @ce_SimpleXMLElement, align 8
  store ptr %102, ptr %12, align 8
  store ptr null, ptr %13, align 8
  br label %106

103:                                              ; preds = %98
  %104 = load ptr, ptr %12, align 8
  %105 = call ptr @php_sxe_find_fptr_count(ptr noundef %104)
  store ptr %105, ptr %13, align 8
  br label %106

106:                                              ; preds = %103, %101
  %107 = load ptr, ptr %12, align 8
  %108 = load ptr, ptr %13, align 8
  %109 = call ptr @php_sxe_object_new(ptr noundef %107, ptr noundef %108)
  store ptr %109, ptr %5, align 8
  %110 = load i64, ptr %10, align 8
  %111 = icmp ne i64 %110, 0
  br i1 %111, label %112, label %115

112:                                              ; preds = %106
  %113 = load ptr, ptr %9, align 8
  %114 = call noalias ptr @_estrdup(ptr noundef %113)
  br label %116

115:                                              ; preds = %106
  br label %116

116:                                              ; preds = %115, %112
  %117 = phi ptr [ %114, %112 ], [ null, %115 ]
  %118 = load ptr, ptr %5, align 8
  %119 = getelementptr inbounds %struct.php_sxe_object, ptr %118, i32 0, i32 4
  %120 = getelementptr inbounds %struct.anon.8, ptr %119, i32 0, i32 1
  store ptr %117, ptr %120, align 8
  %121 = load i8, ptr %14, align 1
  %122 = trunc i8 %121 to i1
  %123 = zext i1 %122 to i32
  %124 = load ptr, ptr %5, align 8
  %125 = getelementptr inbounds %struct.php_sxe_object, ptr %124, i32 0, i32 4
  %126 = getelementptr inbounds %struct.anon.8, ptr %125, i32 0, i32 2
  store i32 %123, ptr %126, align 8
  %127 = load ptr, ptr %5, align 8
  %128 = load ptr, ptr %8, align 8
  %129 = call i32 @php_libxml_increment_doc_ref(ptr noundef %127, ptr noundef %128)
  %130 = load ptr, ptr %5, align 8
  %131 = load ptr, ptr %8, align 8
  %132 = call ptr @xmlDocGetRootElement(ptr noundef %131)
  %133 = call i32 @php_libxml_increment_node_ptr(ptr noundef %130, ptr noundef %132, ptr noundef null)
  br label %134

134:                                              ; preds = %116
  br label %135

135:                                              ; preds = %134
  %136 = load ptr, ptr %4, align 8
  store ptr %136, ptr %21, align 8
  %137 = load ptr, ptr %5, align 8
  %138 = getelementptr inbounds %struct.php_sxe_object, ptr %137, i32 0, i32 7
  %139 = load ptr, ptr %21, align 8
  %140 = getelementptr inbounds %struct._zval_struct, ptr %139, i32 0, i32 0
  store ptr %138, ptr %140, align 8
  %141 = load ptr, ptr %21, align 8
  %142 = getelementptr inbounds %struct._zval_struct, ptr %141, i32 0, i32 1
  store i32 776, ptr %142, align 8
  br label %143

143:                                              ; preds = %135
  br label %144

144:                                              ; preds = %143, %96, %58, %30
  ret void
}