; Function Attrs: nounwind uwtable
define hidden void @zif_simplexml_load_file(ptr nocapture noundef readonly %0, ptr nocapture noundef writeonly %1) #1 {
  %3 = alloca ptr, align 8
  %4 = alloca i64, align 8
  %5 = alloca ptr, align 8
  %6 = alloca i64, align 8
  %7 = alloca i64, align 8
  %8 = alloca ptr, align 8
  %9 = alloca i8, align 1
  store ptr null, ptr %5, align 8
  store i64 0, ptr %6, align 8
  store i64 0, ptr %7, align 8
  %10 = load ptr, ptr @ce_SimpleXMLElement, align 8
  store ptr %10, ptr %8, align 8
  store i8 0, ptr %9, align 1
  %11 = getelementptr inbounds i8, ptr %0, i64 44
  %12 = load i32, ptr %11, align 4
  %13 = call i32 (i32, ptr, ...) @zend_parse_parameters(i32 noundef %12, ptr noundef nonnull @.str.16, ptr noundef nonnull %3, ptr noundef nonnull %4, ptr noundef nonnull %8, ptr noundef nonnull %7, ptr noundef nonnull %5, ptr noundef nonnull %6, ptr noundef nonnull %9) #14
  %14 = icmp eq i32 %13, -1
  br i1 %14, label %15, label %18

15:                                               ; preds = %2
  %16 = load ptr, ptr getelementptr inbounds (%struct._zend_executor_globals, ptr @executor_globals, i64 0, i32 50), align 8
  %17 = icmp ne ptr %16, null
  call void @llvm.assume(i1 %17)
  br label %94

18:                                               ; preds = %2
  %19 = load i64, ptr %7, align 8
  %20 = add i64 %19, -2147483648
  %spec.select = icmp ult i64 %20, -4294967296
  br i1 %spec.select, label %21, label %24

21:                                               ; preds = %18
  call void (i32, ptr, ...) @zend_argument_value_error(i32 noundef 3, ptr noundef nonnull @.str.17) #14
  %22 = load ptr, ptr getelementptr inbounds (%struct._zend_executor_globals, ptr @executor_globals, i64 0, i32 50), align 8
  %23 = icmp ne ptr %22, null
  call void @llvm.assume(i1 %23)
  br label %94

24:                                               ; preds = %18
  %25 = call ptr @__xmlLoadExtDtdDefaultValue() #14
  %26 = load i32, ptr %25, align 4
  %27 = call ptr @__xmlLoadExtDtdDefaultValue() #14
  store i32 0, ptr %27, align 4
  %28 = call ptr @__xmlDoValidityCheckingDefaultValue() #14
  %29 = load i32, ptr %28, align 4
  %30 = call ptr @__xmlDoValidityCheckingDefaultValue() #14
  store i32 0, ptr %30, align 4
  %31 = call i32 @xmlPedanticParserDefault(i32 noundef 0) #14
  %32 = call i32 @xmlSubstituteEntitiesDefault(i32 noundef 0) #14
  %33 = call i32 @xmlLineNumbersDefault(i32 noundef 0) #14
  %34 = call i32 @xmlKeepBlanksDefault(i32 noundef 1) #14
  %35 = load ptr, ptr %3, align 8
  %36 = load i64, ptr %7, align 8
  %37 = trunc i64 %36 to i32
  %38 = call ptr @xmlReadFile(ptr noundef %35, ptr noundef null, i32 noundef %37) #14
  %39 = call ptr @__xmlLoadExtDtdDefaultValue() #14
  store i32 %26, ptr %39, align 4
  %40 = call ptr @__xmlDoValidityCheckingDefaultValue() #14
  store i32 %29, ptr %40, align 4
  %41 = call i32 @xmlPedanticParserDefault(i32 noundef %31) #14
  %42 = call i32 @xmlSubstituteEntitiesDefault(i32 noundef %32) #14
  %43 = call i32 @xmlLineNumbersDefault(i32 noundef %33) #14
  %44 = call i32 @xmlKeepBlanksDefault(i32 noundef %34) #14
  %.not = icmp eq ptr %38, null
  br i1 %.not, label %45, label %47

45:                                               ; preds = %24
  %46 = getelementptr inbounds i8, ptr %1, i64 8
  store i32 2, ptr %46, align 8
  br label %94

47:                                               ; preds = %24
  %48 = load ptr, ptr %8, align 8
  %.not22 = icmp eq ptr %48, null
  %49 = load ptr, ptr @ce_SimpleXMLElement, align 8
  br i1 %.not22, label %50, label %51

50:                                               ; preds = %47
  store ptr %49, ptr %8, align 8
  br label %php_sxe_find_fptr_count.exit

51:                                               ; preds = %47
  %52 = icmp eq ptr %49, %48
  br i1 %52, label %php_sxe_find_fptr_count.exit, label %.lr.ph.i

.lr.ph.i:                                         ; preds = %51, %.lr.ph.i
  %.01423.i = phi ptr [ %54, %.lr.ph.i ], [ %48, %51 ]
  %53 = getelementptr inbounds i8, ptr %.01423.i, i64 16
  %54 = load ptr, ptr %53, align 8
  %.not.i = icmp eq ptr %54, null
  %55 = icmp eq ptr %54, %49
  %or.cond.i = or i1 %.not.i, %55
  br i1 %or.cond.i, label %._crit_edge.i, label %.lr.ph.i

._crit_edge.i:                                    ; preds = %.lr.ph.i
  %56 = getelementptr inbounds i8, ptr %48, i64 64
  %57 = load ptr, ptr @zend_known_strings, align 8
  %58 = getelementptr inbounds i8, ptr %57, i64 552
  %59 = load ptr, ptr %58, align 8
  %60 = call ptr @zend_hash_find(ptr noundef nonnull %56, ptr noundef %59) #14
  %.not19.i = icmp ne ptr %60, null
  call void @llvm.assume(i1 %.not19.i)
  %61 = load ptr, ptr %60, align 8, !nonnull !6, !noundef !6
  %62 = getelementptr inbounds i8, ptr %61, i64 16
  %63 = load ptr, ptr %62, align 8
  %64 = icmp eq ptr %63, %54
  %spec.store.select.i = select i1 %64, ptr null, ptr %61
  %.pre = load ptr, ptr %8, align 8
  br label %php_sxe_find_fptr_count.exit

php_sxe_find_fptr_count.exit:                     ; preds = %._crit_edge.i, %51, %50
  %65 = phi ptr [ %49, %50 ], [ %.pre, %._crit_edge.i ], [ %48, %51 ]
  %.0 = phi ptr [ null, %50 ], [ %spec.store.select.i, %._crit_edge.i ], [ null, %51 ]
  %66 = getelementptr inbounds i8, ptr %65, i64 32
  %67 = load i32, ptr %66, align 8
  %68 = getelementptr inbounds i8, ptr %65, i64 28
  %69 = load i32, ptr %68, align 4
  %70 = lshr i32 %69, 11
  %.lobit.i = and i32 %70, 1
  %71 = xor i32 %.lobit.i, 1
  %72 = sub nsw i32 %67, %71
  %73 = sext i32 %72 to i64
  %74 = shl nsw i64 %73, 4
  %75 = add nsw i64 %74, 152
  %76 = call noalias ptr @_emalloc(i64 noundef %75) #15
  %77 = getelementptr inbounds i8, ptr %76, i64 88
  call void @llvm.memset.p0.i64(ptr noundef nonnull align 1 dereferenceable(88) %76, i8 0, i64 88, i1 false)
  store ptr %.0, ptr %77, align 8
  %78 = getelementptr inbounds i8, ptr %76, i64 96
  call void @zend_object_std_init(ptr noundef nonnull %78, ptr noundef %65) #14
  call void @object_properties_init(ptr noundef nonnull %78, ptr noundef %65) #14
  %79 = load i64, ptr %6, align 8
  %.not23 = icmp eq i64 %79, 0
  br i1 %.not23, label %83, label %80

80:                                               ; preds = %php_sxe_find_fptr_count.exit
  %81 = load ptr, ptr %5, align 8
  %82 = call noalias ptr @_estrdup(ptr noundef %81) #14
  br label %83

83:                                               ; preds = %php_sxe_find_fptr_count.exit, %80
  %84 = phi ptr [ %82, %80 ], [ null, %php_sxe_find_fptr_count.exit ]
  %85 = getelementptr inbounds i8, ptr %76, i64 40
  store ptr %84, ptr %85, align 8
  %86 = load i8, ptr %9, align 1
  %87 = and i8 %86, 1
  %88 = zext nneg i8 %87 to i32
  %89 = getelementptr inbounds i8, ptr %76, i64 48
  store i32 %88, ptr %89, align 8
  %90 = call i32 @php_libxml_increment_doc_ref(ptr noundef nonnull %76, ptr noundef nonnull %38) #14
  %91 = call ptr @xmlDocGetRootElement(ptr noundef nonnull %38) #14
  %92 = call i32 @php_libxml_increment_node_ptr(ptr noundef nonnull %76, ptr noundef %91, ptr noundef null) #14
  store ptr %78, ptr %1, align 8
  %93 = getelementptr inbounds i8, ptr %1, i64 8
  store i32 776, ptr %93, align 8
  br label %94

94:                                               ; preds = %83, %45, %21, %15
  ret void
}